; Function Attrs: mustprogress uwtable
define noundef ptr @proj_destroy(ptr noundef %0) local_unnamed_addr #4 {
  %2 = icmp eq ptr %0, null
  br i1 %2, label %9, label %3

3:                                                ; preds = %1
  %4 = getelementptr inbounds nuw i8, ptr %0, i64 152
  %5 = load ptr, ptr %4, align 8, !tbaa !10
  %.not = icmp eq ptr %5, null
  br i1 %.not, label %9, label %6

6:                                                ; preds = %3
  %7 = tail call i32 @proj_errno(ptr noundef nonnull %0)
  %8 = tail call noundef ptr %5(ptr noundef nonnull %0, i32 noundef %7)
  br label %9

9:                                                ; preds = %1, %3, %6
  ret ptr null
}